target datalayout = "e-m:e-p270:32:32-p271:32:32-p272:64:64-i64:64-i128:128-f80:128-n8:16:32:64-S128"
target triple = "x86_64-pc-linux-gnu"

; Function Attrs: inlinehint mustprogress nounwind uwtable
define linkonce_odr noundef float @_ZSt3absf(float noundef %0) #3 comdat {
  %2 = alloca float, align 4
  store float %0, ptr %2, align 4, !tbaa !30
  %3 = load float, ptr %2, align 4, !tbaa !30
  %4 = call float @llvm.fabs.f32(float %3)
  ret float %4
}

; Function Attrs: mustprogress uwtable
define noundef float @_ZN2cv3hal7normL1_EPKfS2_i(ptr noundef %0, ptr noundef %1, i32 noundef %2) #0 {
  %4 = alloca ptr, align 8
  %5 = alloca ptr, align 8
  %6 = alloca i32, align 4
  %7 = alloca i32, align 4
  %8 = alloca float, align 4
  store ptr %0, ptr %4, align 8, !tbaa !15
  store ptr %1, ptr %5, align 8, !tbaa !15
  store i32 %2, ptr %6, align 4, !tbaa !3
  call void @llvm.lifetime.start.p0(i64 4, ptr %7) #15
  store i32 0, ptr %7, align 4, !tbaa !3
  call void @llvm.lifetime.start.p0(i64 4, ptr %8) #15
  store float 0.000000e+00, ptr %8, align 4, !tbaa !30
  br label %9

9:                                                ; preds = %28, %3
  %10 = load i32, ptr %7, align 4, !tbaa !3
  %11 = load i32, ptr %6, align 4, !tbaa !3
  %12 = icmp slt i32 %10, %11
  br i1 %12, label %13, label %31

13:                                               ; preds = %9
  %14 = load ptr, ptr %4, align 8, !tbaa !15
  %15 = load i32, ptr %7, align 4, !tbaa !3
  %16 = sext i32 %15 to i64
  %17 = getelementptr inbounds float, ptr %14, i64 %16
  %18 = load float, ptr %17, align 4, !tbaa !30
  %19 = load ptr, ptr %5, align 8, !tbaa !15
  %20 = load i32, ptr %7, align 4, !tbaa !3
  %21 = sext i32 %20 to i64
  %22 = getelementptr inbounds float, ptr %19, i64 %21
  %23 = load float, ptr %22, align 4, !tbaa !30
  %24 = fsub float %18, %23
  %25 = call noundef float @_ZSt3absf(float noundef %24)
  %26 = load float, ptr %8, align 4, !tbaa !30
  %27 = fadd float %26, %25
  store float %27, ptr %8, align 4, !tbaa !30
  br label %28

28:                                               ; preds = %13
  %29 = load i32, ptr %7, align 4, !tbaa !3
  %30 = add nsw i32 %29, 1
  store i32 %30, ptr %7, align 4, !tbaa !3
  br label %9, !llvm.loop !33

31:                                               ; preds = %9
  %32 = load float, ptr %8, align 4, !tbaa !30
  call void @llvm.lifetime.end.p0(i64 4, ptr %8) #15
  call void @llvm.lifetime.end.p0(i64 4, ptr %7) #15
  ret float %32
}